; ModuleID = '24/2586.c'
source_filename = "24/2586.c"
target datalayout = "e-m:e-p270:32:32-p271:32:32-p272:64:64-i64:64-f80:128-n8:16:32:64-S128"
target triple = "x86_64-pc-linux-gnu"

@.str = private unnamed_addr constant [3 x i8] c"%d\00", align 1
@.str.1 = private unnamed_addr constant [3 x i8] c"%s\00", align 1
@.str.2 = private unnamed_addr constant [4 x i8] c"%s\0A\00", align 1

; Function Attrs: noinline nounwind uwtable
define dso_local i32 @main() #0 {
  %1 = alloca i32, align 4
  %2 = alloca i32, align 4
  %3 = alloca i32, align 4
  %4 = alloca i32, align 4
  %5 = alloca i32, align 4
  %6 = alloca [200 x i8], align 16
  %7 = alloca [232 x i8], align 16
  %8 = alloca [232 x i8], align 16
  %9 = alloca i32, align 4
  %10 = alloca i32, align 4
  store i32 0, i32* %1, align 4
  store i32 0, i32* %9, align 4
  store i32 100, i32* %10, align 4
  %11 = call i32 (i8*, ...) @__isoc99_scanf(i8* getelementptr inbounds ([3 x i8], [3 x i8]* @.str, i64 0, i64 0), i32* %4)
  store i32 1, i32* %5, align 4
  br label %12

12:                                               ; preds = %40, %0
  %13 = load i32, i32* %5, align 4
  %14 = load i32, i32* %4, align 4
  %15 = icmp sle i32 %13, %14
  br i1 %15, label %16, label %43

16:                                               ; preds = %12
  %17 = getelementptr inbounds [200 x i8], [200 x i8]* %6, i64 0, i64 0
  %18 = call i32 (i8*, ...) @__isoc99_scanf(i8* getelementptr inbounds ([3 x i8], [3 x i8]* @.str.1, i64 0, i64 0), i8* %17)
  %19 = getelementptr inbounds [200 x i8], [200 x i8]* %6, i64 0, i64 0
  %20 = call i64 @strlen(i8* %19) #4
  %21 = trunc i64 %20 to i32
  store i32 %21, i32* %2, align 4
  %22 = load i32, i32* %2, align 4
  %23 = load i32, i32* %9, align 4
  %24 = icmp sgt i32 %22, %23
  br i1 %24, label %25, label %30

25:                                               ; preds = %16
  %26 = load i32, i32* %2, align 4
  store i32 %26, i32* %9, align 4
  %27 = getelementptr inbounds [232 x i8], [232 x i8]* %7, i64 0, i64 0
  %28 = getelementptr inbounds [200 x i8], [200 x i8]* %6, i64 0, i64 0
  %29 = call i8* @strcpy(i8* %27, i8* %28) #5
  br label %30

30:                                               ; preds = %25, %16
  %31 = load i32, i32* %2, align 4
  %32 = load i32, i32* %10, align 4
  %33 = icmp slt i32 %31, %32
  br i1 %33, label %34, label %39

34:                                               ; preds = %30
  %35 = load i32, i32* %2, align 4
  store i32 %35, i32* %10, align 4
  %36 = getelementptr inbounds [232 x i8], [232 x i8]* %8, i64 0, i64 0
  %37 = getelementptr inbounds [200 x i8], [200 x i8]* %6, i64 0, i64 0
  %38 = call i8* @strcpy(i8* %36, i8* %37) #5
  br label %39

39:                                               ; preds = %34, %30
  br label %40

40:                                               ; preds = %39
  %41 = load i32, i32* %5, align 4
  %42 = add nsw i32 %41, 1
  store i32 %42, i32* %5, align 4
  br label %12

43:                                               ; preds = %12
  %44 = getelementptr inbounds [232 x i8], [232 x i8]* %7, i64 0, i64 0
  %45 = call i32 (i8*, ...) @printf(i8* getelementptr inbounds ([4 x i8], [4 x i8]* @.str.2, i64 0, i64 0), i8* %44)
  %46 = getelementptr inbounds [232 x i8], [232 x i8]* %8, i64 0, i64 0
  %47 = call i32 (i8*, ...) @printf(i8* getelementptr inbounds ([4 x i8], [4 x i8]* @.str.2, i64 0, i64 0), i8* %46)
  ret i32 0
}

declare dso_local i32 @__isoc99_scanf(i8*, ...) #1

; Function Attrs: nounwind readonly
declare dso_local i64 @strlen(i8*) #2

; Function Attrs: nounwind
declare dso_local i8* @strcpy(i8*, i8*) #3

declare dso_local i32 @printf(i8*, ...) #1


!llvm.module.flags = !{!0}
!llvm.ident = !{!1}

!0 = !{i32 1, !"wchar_size", i32 4}
!1 = !{!"clang version 10.0.0-4ubuntu1 "}
