; ModuleID = 'source-C-CXX/23/2586.c'
source_filename = "source-C-CXX/23/2586.c"
target datalayout = "e-m:e-p270:32:32-p271:32:32-p272:64:64-i64:64-f80:128-n8:16:32:64-S128"
target triple = "x86_64-pc-linux-gnu"

@.str = private unnamed_addr constant [3 x i8] c"%d\00", align 1
@.str.1 = private unnamed_addr constant [3 x i8] c"%s\00", align 1

; Function Attrs: nofree nounwind sspstrong uwtable
define dso_local i32 @main() local_unnamed_addr #0 {
  %1 = alloca i32, align 4
  %2 = alloca [200 x i8], align 16
  %3 = alloca [232 x i8], align 16
  %4 = alloca [232 x i8], align 16
  %5 = bitcast i32* %1 to i8*
  call void @llvm.lifetime.start.p0i8(i64 4, i8* nonnull %5) #6
  %6 = getelementptr inbounds [200 x i8], [200 x i8]* %2, i64 0, i64 0
  call void @llvm.lifetime.start.p0i8(i64 200, i8* nonnull %6) #6
  %7 = getelementptr inbounds [232 x i8], [232 x i8]* %3, i64 0, i64 0
  call void @llvm.lifetime.start.p0i8(i64 232, i8* nonnull %7) #6
  %8 = getelementptr inbounds [232 x i8], [232 x i8]* %4, i64 0, i64 0
  call void @llvm.lifetime.start.p0i8(i64 232, i8* nonnull %8) #6
  %9 = call i32 (i8*, ...) @__isoc99_scanf(i8* getelementptr inbounds ([3 x i8], [3 x i8]* @.str, i64 0, i64 0), i32* nonnull %1)
  %10 = load i32, i32* %1, align 4, !tbaa !5
  %11 = icmp slt i32 %10, 1
  br i1 %11, label %32, label %12

12:                                               ; preds = %0, %27
  %13 = phi i32 [ %28, %27 ], [ 100, %0 ]
  %14 = phi i32 [ %23, %27 ], [ 0, %0 ]
  %15 = phi i32 [ %29, %27 ], [ 1, %0 ]
  %16 = call i32 (i8*, ...) @__isoc99_scanf(i8* getelementptr inbounds ([3 x i8], [3 x i8]* @.str.1, i64 0, i64 0), i8* nonnull %6)
  %17 = call i64 @strlen(i8* noundef nonnull %6) #7
  %18 = trunc i64 %17 to i32
  %19 = icmp slt i32 %14, %18
  br i1 %19, label %20, label %22

20:                                               ; preds = %12
  %21 = call i8* @strcpy(i8* noundef nonnull %7, i8* noundef nonnull %6) #6
  br label %22

22:                                               ; preds = %20, %12
  %23 = phi i32 [ %18, %20 ], [ %14, %12 ]
  %24 = icmp sgt i32 %13, %18
  br i1 %24, label %25, label %27

25:                                               ; preds = %22
  %26 = call i8* @strcpy(i8* noundef nonnull %8, i8* noundef nonnull %6) #6
  br label %27

27:                                               ; preds = %22, %25
  %28 = phi i32 [ %18, %25 ], [ %13, %22 ]
  %29 = add nuw nsw i32 %15, 1
  %30 = load i32, i32* %1, align 4, !tbaa !5
  %31 = icmp slt i32 %15, %30
  br i1 %31, label %12, label %32, !llvm.loop !9

32:                                               ; preds = %27, %0
  %33 = call i32 @puts(i8* nonnull %7)
  %34 = call i32 @puts(i8* nonnull %8)
  call void @llvm.lifetime.end.p0i8(i64 232, i8* nonnull %8) #6
  call void @llvm.lifetime.end.p0i8(i64 232, i8* nonnull %7) #6
  call void @llvm.lifetime.end.p0i8(i64 200, i8* nonnull %6) #6
  call void @llvm.lifetime.end.p0i8(i64 4, i8* nonnull %5) #6
  ret i32 0
}

; Function Attrs: argmemonly mustprogress nofree nosync nounwind willreturn
declare void @llvm.lifetime.start.p0i8(i64 immarg, i8* nocapture) #1

; Function Attrs: nofree nounwind
declare noundef i32 @__isoc99_scanf(i8* nocapture noundef readonly, ...) local_unnamed_addr #2

; Function Attrs: argmemonly mustprogress nofree nounwind readonly willreturn
declare i64 @strlen(i8* nocapture) local_unnamed_addr #3

; Function Attrs: argmemonly mustprogress nofree nounwind willreturn
declare i8* @strcpy(i8* noalias returned writeonly, i8* noalias nocapture readonly) local_unnamed_addr #4

; Function Attrs: argmemonly mustprogress nofree nosync nounwind willreturn
declare void @llvm.lifetime.end.p0i8(i64 immarg, i8* nocapture) #1

; Function Attrs: nofree nounwind
declare noundef i32 @puts(i8* nocapture noundef readonly) local_unnamed_addr #5


!llvm.module.flags = !{!0, !1, !2, !3}
!llvm.ident = !{!4}

!0 = !{i32 1, !"wchar_size", i32 4}
!1 = !{i32 7, !"PIC Level", i32 2}
!2 = !{i32 7, !"PIE Level", i32 2}
!3 = !{i32 7, !"uwtable", i32 1}
!4 = !{!"clang version 13.0.0"}
!5 = !{!6, !6, i64 0}
!6 = !{!"int", !7, i64 0}
!7 = !{!"omnipotent char", !8, i64 0}
!8 = !{!"Simple C/C++ TBAA"}
!9 = distinct !{!9, !10}
!10 = !{!"llvm.loop.mustprogress"}
